target datalayout = "e-m:e-p270:32:32-p271:32:32-p272:64:64-i64:64-i128:128-f80:128-n8:16:32:64-S128"
target triple = "x86_64-pc-linux-gnu"

%"class.icu_77::UObject" = type { ptr }
%"class.icu_77::Calendar" = type <{ %"class.icu_77::UObject", [24 x i32], [24 x i8], i8, [7 x i8], double, ptr, i8, i16, i8, i32, i32, i32, i8, i8, i16, [4 x i8], ptr, ptr }>

; Function Attrs: mustprogress nounwind uwtable
define void @_ZN6icu_778Calendar25setMinimalDaysInFirstWeekEh(ptr noundef nonnull align 8 dereferenceable(192) %0, i8 noundef zeroext %1) #0 align 2 {
  %3 = alloca ptr, align 8
  %4 = alloca i8, align 1
  store ptr %0, ptr %3, align 8, !tbaa !37
  store i8 %1, ptr %4, align 1, !tbaa !70
  %5 = load ptr, ptr %3, align 8
  %6 = load i8, ptr %4, align 1, !tbaa !70
  %7 = zext i8 %6 to i32
  %8 = icmp slt i32 %7, 1
  br i1 %8, label %9, label %10

9:                                                ; preds = %2
  store i8 1, ptr %4, align 1, !tbaa !70
  br label %16

10:                                               ; preds = %2
  %11 = load i8, ptr %4, align 1, !tbaa !70
  %12 = zext i8 %11 to i32
  %13 = icmp sgt i32 %12, 7
  br i1 %13, label %14, label %15

14:                                               ; preds = %10
  store i8 7, ptr %4, align 1, !tbaa !70
  br label %15

15:                                               ; preds = %14, %10
  br label %16

16:                                               ; preds = %15, %9
  %17 = getelementptr inbounds nuw %"class.icu_77::Calendar", ptr %5, i32 0, i32 9
  %18 = load i8, ptr %17, align 1, !tbaa !67
  %19 = zext i8 %18 to i32
  %20 = load i8, ptr %4, align 1, !tbaa !70
  %21 = zext i8 %20 to i32
  %22 = icmp ne i32 %19, %21
  br i1 %22, label %23, label %30

23:                                               ; preds = %16
  %24 = load i8, ptr %4, align 1, !tbaa !70
  %25 = getelementptr inbounds nuw %"class.icu_77::Calendar", ptr %5, i32 0, i32 9
  store i8 %24, ptr %25, align 1, !tbaa !67
  %26 = getelementptr inbounds nuw %"class.icu_77::Calendar", ptr %5, i32 0, i32 7
  %27 = load i8, ptr %26, align 8
  %28 = and i8 %27, -3
  %29 = or i8 %28, 0
  store i8 %29, ptr %26, align 8
  br label %30

30:                                               ; preds = %23, %16
  ret void
}