; Function Attrs: mustprogress nofree norecurse nosync nounwind willreturn memory(argmem: readwrite) uwtable
define void @_ZN6icu_778Calendar25setMinimalDaysInFirstWeekEh(ptr noundef nonnull align 8 captures(none) dereferenceable(192) %0, i8 noundef zeroext %1) local_unnamed_addr #12 align 2 {
  %3 = icmp eq i8 %1, 0
  %spec.store.select = tail call i8 @llvm.umin.i8(i8 %1, i8 7)
  %.0 = select i1 %3, i8 1, i8 %spec.store.select
  %4 = getelementptr inbounds nuw i8, ptr %0, i64 155
  %5 = load i8, ptr %4, align 1, !tbaa !27
  %.not = icmp eq i8 %5, %.0
  br i1 %.not, label %10, label %6

6:                                                ; preds = %2
  store i8 %.0, ptr %4, align 1, !tbaa !27
  %7 = getelementptr inbounds nuw i8, ptr %0, i64 152
  %8 = load i8, ptr %7, align 8
  %9 = and i8 %8, -3
  store i8 %9, ptr %7, align 8
  br label %10

10:                                               ; preds = %6, %2
  ret void
}